target datalayout = "e-m:e-p270:32:32-p271:32:32-p272:64:64-i64:64-i128:128-f80:128-n8:16:32:64-S128"
target triple = "x86_64-pc-linux-gnu"

%struct.ossl_param_st = type { ptr, i32, ptr, i64, i64 }

@mainctx = internal global ptr null, align 8
@.str.28 = private unnamed_addr constant [34 x i8] c"../openssl/test/evp_extra_test2.c\00", align 1
@.str.37 = private unnamed_addr constant [2 x i8] c"p\00", align 1
@.str.44 = private unnamed_addr constant [5 x i8] c"priv\00", align 1
@.str.48 = private unnamed_addr constant [2 x i8] c"g\00", align 1
@.str.57 = private unnamed_addr constant [2 x i8] c"1\00", align 1
@__const.test_dsa_todata.dsa_seed = private unnamed_addr constant [28 x i8] c"\BC\8A\81d\9E\9Dc\A7\A3]\87\DD2\F3\C1\9F\18\22\EBsc\AD^{\90\C1\E3\E0", align 16
@.str.102 = private unnamed_addr constant [5 x i8] c"seed\00", align 1
@.str.103 = private unnamed_addr constant [7 x i8] c"gindex\00", align 1
@.str.104 = private unnamed_addr constant [9 x i8] c"pcounter\00", align 1
@.str.105 = private unnamed_addr constant [78 x i8] c"pkey = d2i_AutoPrivateKey_ex(NULL, &pkeydata, sizeof(dsa_key), mainctx, NULL)\00", align 1
@.str.106 = private unnamed_addr constant [52 x i8] c"EVP_PKEY_todata(pkey, EVP_PKEY_KEYPAIR, &to_params)\00", align 1
@.str.107 = private unnamed_addr constant [2 x i8] c"q\00", align 1
@dsa_q = internal constant [29 x i8] c"\00\E0 \E0|\02\16\A7lj\19\BA\D5\83s\F3}1\EF\A7\E1][\7F\F3\FC\DA\841", align 16
@.str.108 = private unnamed_addr constant [4 x i8] c"pub\00", align 1
@dsa_priv = internal constant [28 x i8] c"/hD\CB\FBk\CB\8D\02I|\EE\D2\A6\D3C\B8\A4\09\B7\C1\D4K\C3f\A7\E0!", align 16
@.str.109 = private unnamed_addr constant [7 x i8] c"hindex\00", align 1
@.str.110 = private unnamed_addr constant [12 x i8] c"validate-pq\00", align 1
@.str.111 = private unnamed_addr constant [11 x i8] c"validate-g\00", align 1
@.str.112 = private unnamed_addr constant [16 x i8] c"validate-legacy\00", align 1
@.str.113 = private unnamed_addr constant [55 x i8] c"OSSL_PARAM_locate(to_params, OSSL_PKEY_PARAM_FFC_SEED)\00", align 1
@.str.114 = private unnamed_addr constant [4 x i8] c"DSA\00", align 1
@.str.115 = private unnamed_addr constant [53 x i8] c"all_params = OSSL_PARAM_merge(to_params, gen_params)\00", align 1

; Function Attrs: nounwind uwtable
define internal i32 @test_dsa_todata() #0 {
  %1 = alloca ptr, align 8
  %2 = alloca ptr, align 8
  %3 = alloca ptr, align 8
  %4 = alloca [4 x %struct.ossl_param_st], align 16
  %5 = alloca i32, align 4
  %6 = alloca ptr, align 8
  %7 = alloca [28 x i8], align 16
  %8 = alloca i32, align 4
  %9 = alloca i32, align 4
  %10 = alloca %struct.ossl_param_st, align 8
  %11 = alloca %struct.ossl_param_st, align 8
  %12 = alloca %struct.ossl_param_st, align 8
  %13 = alloca %struct.ossl_param_st, align 8
  %14 = alloca %struct.ossl_param_st, align 8
  %15 = alloca %struct.ossl_param_st, align 8
  call void @llvm.lifetime.start.p0(i64 8, ptr %1) #7
  store ptr null, ptr %1, align 8, !tbaa !13
  call void @llvm.lifetime.start.p0(i64 8, ptr %2) #7
  store ptr null, ptr %2, align 8, !tbaa !35
  call void @llvm.lifetime.start.p0(i64 8, ptr %3) #7
  store ptr null, ptr %3, align 8, !tbaa !35
  call void @llvm.lifetime.start.p0(i64 160, ptr %4) #7
  call void @llvm.lifetime.start.p0(i64 4, ptr %5) #7
  store i32 0, ptr %5, align 4, !tbaa !11
  call void @llvm.lifetime.start.p0(i64 8, ptr %6) #7
  store ptr @dsa_key, ptr %6, align 8, !tbaa !21
  call void @llvm.lifetime.start.p0(i64 28, ptr %7) #7
  call void @llvm.memcpy.p0.p0.i64(ptr align 16 %7, ptr align 16 @__const.test_dsa_todata.dsa_seed, i64 28, i1 false)
  call void @llvm.lifetime.start.p0(i64 4, ptr %8) #7
  store i32 319, ptr %8, align 4, !tbaa !11
  call void @llvm.lifetime.start.p0(i64 4, ptr %9) #7
  store i32 5, ptr %9, align 4, !tbaa !11
  %16 = getelementptr inbounds [4 x %struct.ossl_param_st], ptr %4, i64 0, i64 0
  call void @llvm.lifetime.start.p0(i64 40, ptr %10) #7
  %17 = getelementptr inbounds [28 x i8], ptr %7, i64 0, i64 0
  call void @OSSL_PARAM_construct_octet_string(ptr dead_on_unwind writable sret(%struct.ossl_param_st) align 8 %10, ptr noundef @.str.102, ptr noundef %17, i64 noundef 28)
  call void @llvm.memcpy.p0.p0.i64(ptr align 16 %16, ptr align 8 %10, i64 40, i1 false), !tbaa.struct !37
  call void @llvm.lifetime.end.p0(i64 40, ptr %10) #7
  %18 = getelementptr inbounds [4 x %struct.ossl_param_st], ptr %4, i64 0, i64 1
  call void @llvm.lifetime.start.p0(i64 40, ptr %11) #7
  call void @OSSL_PARAM_construct_int(ptr dead_on_unwind writable sret(%struct.ossl_param_st) align 8 %11, ptr noundef @.str.103, ptr noundef %9)
  call void @llvm.memcpy.p0.p0.i64(ptr align 8 %18, ptr align 8 %11, i64 40, i1 false), !tbaa.struct !37
  call void @llvm.lifetime.end.p0(i64 40, ptr %11) #7
  %19 = getelementptr inbounds [4 x %struct.ossl_param_st], ptr %4, i64 0, i64 2
  call void @llvm.lifetime.start.p0(i64 40, ptr %12) #7
  call void @OSSL_PARAM_construct_int(ptr dead_on_unwind writable sret(%struct.ossl_param_st) align 8 %12, ptr noundef @.str.104, ptr noundef %8)
  call void @llvm.memcpy.p0.p0.i64(ptr align 16 %19, ptr align 8 %12, i64 40, i1 false), !tbaa.struct !37
  call void @llvm.lifetime.end.p0(i64 40, ptr %12) #7
  %20 = getelementptr inbounds [4 x %struct.ossl_param_st], ptr %4, i64 0, i64 3
  call void @llvm.lifetime.start.p0(i64 40, ptr %13) #7
  call void @OSSL_PARAM_construct_end(ptr dead_on_unwind writable sret(%struct.ossl_param_st) align 8 %13)
  call void @llvm.memcpy.p0.p0.i64(ptr align 8 %20, ptr align 8 %13, i64 40, i1 false), !tbaa.struct !37
  call void @llvm.lifetime.end.p0(i64 40, ptr %13) #7
  %21 = load ptr, ptr @mainctx, align 8, !tbaa !4
  %22 = call ptr @d2i_AutoPrivateKey_ex(ptr noundef null, ptr noundef %6, i64 noundef 850, ptr noundef %21, ptr noundef null)
  store ptr %22, ptr %1, align 8, !tbaa !13
  %23 = call i32 @test_ptr(ptr noundef @.str.28, i32 noundef 1117, ptr noundef @.str.105, ptr noundef %22)
  %24 = icmp ne i32 %23, 0
  br i1 %24, label %25, label %79

25:                                               ; preds = %0
  %26 = load ptr, ptr %1, align 8, !tbaa !13
  %27 = call i32 @EVP_PKEY_todata(ptr noundef %26, i32 noundef 135, ptr noundef %2)
  %28 = call i32 @test_int_eq(ptr noundef @.str.28, i32 noundef 1118, ptr noundef @.str.106, ptr noundef @.str.57, i32 noundef %27, i32 noundef 1)
  %29 = icmp ne i32 %28, 0
  br i1 %29, label %30, label %79

30:                                               ; preds = %25
  %31 = load ptr, ptr %2, align 8, !tbaa !35
  %32 = call i32 @do_check_bn(ptr noundef %31, ptr noundef @.str.37, ptr noundef @dsa_p, i64 noundef 257)
  %33 = icmp ne i32 %32, 0
  br i1 %33, label %34, label %79

34:                                               ; preds = %30
  %35 = load ptr, ptr %2, align 8, !tbaa !35
  %36 = call i32 @do_check_bn(ptr noundef %35, ptr noundef @.str.107, ptr noundef @dsa_q, i64 noundef 29)
  %37 = icmp ne i32 %36, 0
  br i1 %37, label %38, label %79

38:                                               ; preds = %34
  %39 = load ptr, ptr %2, align 8, !tbaa !35
  %40 = call i32 @do_check_bn(ptr noundef %39, ptr noundef @.str.48, ptr noundef @dsa_g, i64 noundef 257)
  %41 = icmp ne i32 %40, 0
  br i1 %41, label %42, label %79

42:                                               ; preds = %38
  %43 = load ptr, ptr %2, align 8, !tbaa !35
  %44 = call i32 @do_check_bn(ptr noundef %43, ptr noundef @.str.108, ptr noundef @dsa_pub, i64 noundef 256)
  %45 = icmp ne i32 %44, 0
  br i1 %45, label %46, label %79

46:                                               ; preds = %42
  %47 = load ptr, ptr %2, align 8, !tbaa !35
  %48 = call i32 @do_check_bn(ptr noundef %47, ptr noundef @.str.44, ptr noundef @dsa_priv, i64 noundef 28)
  %49 = icmp ne i32 %48, 0
  br i1 %49, label %50, label %79

50:                                               ; preds = %46
  %51 = load ptr, ptr %2, align 8, !tbaa !35
  %52 = call i32 @do_check_int(ptr noundef %51, ptr noundef @.str.103, i32 noundef -1)
  %53 = icmp ne i32 %52, 0
  br i1 %53, label %54, label %79

54:                                               ; preds = %50
  %55 = load ptr, ptr %2, align 8, !tbaa !35
  %56 = call i32 @do_check_int(ptr noundef %55, ptr noundef @.str.104, i32 noundef -1)
  %57 = icmp ne i32 %56, 0
  br i1 %57, label %58, label %79

58:                                               ; preds = %54
  %59 = load ptr, ptr %2, align 8, !tbaa !35
  %60 = call i32 @do_check_int(ptr noundef %59, ptr noundef @.str.109, i32 noundef 0)
  %61 = icmp ne i32 %60, 0
  br i1 %61, label %62, label %79

62:                                               ; preds = %58
  %63 = load ptr, ptr %2, align 8, !tbaa !35
  %64 = call i32 @do_check_int(ptr noundef %63, ptr noundef @.str.110, i32 noundef 1)
  %65 = icmp ne i32 %64, 0
  br i1 %65, label %66, label %79

66:                                               ; preds = %62
  %67 = load ptr, ptr %2, align 8, !tbaa !35
  %68 = call i32 @do_check_int(ptr noundef %67, ptr noundef @.str.111, i32 noundef 1)
  %69 = icmp ne i32 %68, 0
  br i1 %69, label %70, label %79

70:                                               ; preds = %66
  %71 = load ptr, ptr %2, align 8, !tbaa !35
  %72 = call i32 @do_check_int(ptr noundef %71, ptr noundef @.str.112, i32 noundef 0)
  %73 = icmp ne i32 %72, 0
  br i1 %73, label %74, label %79

74:                                               ; preds = %70
  %75 = load ptr, ptr %2, align 8, !tbaa !35
  %76 = call ptr @OSSL_PARAM_locate(ptr noundef %75, ptr noundef @.str.102)
  %77 = call i32 @test_ptr_null(ptr noundef @.str.28, i32 noundef 1132, ptr noundef @.str.113, ptr noundef %76)
  %78 = icmp ne i32 %77, 0
  br i1 %78, label %80, label %79

79:                                               ; preds = %74, %70, %66, %62, %58, %54, %50, %46, %42, %38, %34, %30, %25, %0
  br label %124

80:                                               ; preds = %74
  %81 = load ptr, ptr %2, align 8, !tbaa !35
  %82 = load ptr, ptr %1, align 8, !tbaa !13
  %83 = call i32 @do_fromdata_key_is_equal(ptr noundef %81, ptr noundef %82, ptr noundef @.str.114)
  %84 = icmp ne i32 %83, 0
  br i1 %84, label %86, label %85

85:                                               ; preds = %80
  br label %124

86:                                               ; preds = %80
  %87 = load ptr, ptr %2, align 8, !tbaa !35
  %88 = getelementptr inbounds [4 x %struct.ossl_param_st], ptr %4, i64 0, i64 0
  %89 = call ptr @OSSL_PARAM_merge(ptr noundef %87, ptr noundef %88)
  store ptr %89, ptr %3, align 8, !tbaa !35
  %90 = call i32 @test_ptr(ptr noundef @.str.28, i32 noundef 1138, ptr noundef @.str.115, ptr noundef %89)
  %91 = icmp ne i32 %90, 0
  br i1 %91, label %92, label %96

92:                                               ; preds = %86
  %93 = load ptr, ptr %3, align 8, !tbaa !35
  %94 = call i32 @do_check_params(ptr noundef %93, i32 noundef 1)
  %95 = icmp ne i32 %94, 0
  br i1 %95, label %97, label %96

96:                                               ; preds = %92, %86
  br label %124

97:                                               ; preds = %92
  %98 = getelementptr inbounds [4 x %struct.ossl_param_st], ptr %4, i64 0, i64 1
  call void @llvm.lifetime.start.p0(i64 40, ptr %14) #7
  call void @OSSL_PARAM_construct_int(ptr dead_on_unwind writable sret(%struct.ossl_param_st) align 8 %14, ptr noundef @.str.103, ptr noundef %9)
  call void @llvm.memcpy.p0.p0.i64(ptr align 8 %98, ptr align 8 %14, i64 40, i1 false), !tbaa.struct !37
  call void @llvm.lifetime.end.p0(i64 40, ptr %14) #7
  %99 = getelementptr inbounds [4 x %struct.ossl_param_st], ptr %4, i64 0, i64 2
  call void @llvm.lifetime.start.p0(i64 40, ptr %15) #7
  call void @OSSL_PARAM_construct_int(ptr dead_on_unwind writable sret(%struct.ossl_param_st) align 8 %15, ptr noundef @.str.104, ptr noundef %8)
  call void @llvm.memcpy.p0.p0.i64(ptr align 16 %99, ptr align 8 %15, i64 40, i1 false), !tbaa.struct !37
  call void @llvm.lifetime.end.p0(i64 40, ptr %15) #7
  %100 = load i32, ptr %9, align 4, !tbaa !11
  %101 = add nsw i32 %100, 1
  store i32 %101, ptr %9, align 4, !tbaa !11
  %102 = load ptr, ptr %3, align 8, !tbaa !35
  %103 = call i32 @do_check_params(ptr noundef %102, i32 noundef 0)
  %104 = icmp ne i32 %103, 0
  br i1 %104, label %106, label %105

105:                                              ; preds = %97
  br label %124

106:                                              ; preds = %97
  %107 = load i32, ptr %9, align 4, !tbaa !11
  %108 = add nsw i32 %107, -1
  store i32 %108, ptr %9, align 4, !tbaa !11
  %109 = load i32, ptr %8, align 4, !tbaa !11
  %110 = add nsw i32 %109, 1
  store i32 %110, ptr %8, align 4, !tbaa !11
  %111 = load ptr, ptr %3, align 8, !tbaa !35
  %112 = call i32 @do_check_params(ptr noundef %111, i32 noundef 0)
  %113 = icmp ne i32 %112, 0
  br i1 %113, label %115, label %114

114:                                              ; preds = %106
  br label %124

115:                                              ; preds = %106
  %116 = load i32, ptr %8, align 4, !tbaa !11
  %117 = add nsw i32 %116, -1
  store i32 %117, ptr %8, align 4, !tbaa !11
  %118 = getelementptr inbounds [28 x i8], ptr %7, i64 0, i64 0
  store i8 -80, ptr %118, align 16, !tbaa !39
  %119 = load ptr, ptr %3, align 8, !tbaa !35
  %120 = call i32 @do_check_params(ptr noundef %119, i32 noundef 0)
  %121 = icmp ne i32 %120, 0
  br i1 %121, label %123, label %122

122:                                              ; preds = %115
  br label %124

123:                                              ; preds = %115
  store i32 1, ptr %5, align 4, !tbaa !11
  br label %124

124:                                              ; preds = %123, %122, %114, %105, %96, %85, %79
  %125 = load ptr, ptr %1, align 8, !tbaa !13
  call void @EVP_PKEY_free(ptr noundef %125)
  %126 = load ptr, ptr %3, align 8, !tbaa !35
  call void @OSSL_PARAM_free(ptr noundef %126)
  %127 = load ptr, ptr %2, align 8, !tbaa !35
  call void @OSSL_PARAM_free(ptr noundef %127)
  %128 = load i32, ptr %5, align 4, !tbaa !11
  call void @llvm.lifetime.end.p0(i64 4, ptr %9) #7
  call void @llvm.lifetime.end.p0(i64 4, ptr %8) #7
  call void @llvm.lifetime.end.p0(i64 28, ptr %7) #7
  call void @llvm.lifetime.end.p0(i64 8, ptr %6) #7
  call void @llvm.lifetime.end.p0(i64 4, ptr %5) #7
  call void @llvm.lifetime.end.p0(i64 160, ptr %4) #7
  call void @llvm.lifetime.end.p0(i64 8, ptr %3) #7
  call void @llvm.lifetime.end.p0(i64 8, ptr %2) #7
  call void @llvm.lifetime.end.p0(i64 8, ptr %1) #7
  ret i32 %128
}