; Function Attrs: nounwind uwtable
define internal range(i32 0, 2) i32 @test_dsa_todata() #0 {
  %1 = alloca ptr, align 8
  %2 = alloca [4 x %struct.ossl_param_st], align 16
  %3 = alloca ptr, align 8
  %4 = alloca [28 x i8], align 16
  %5 = alloca i32, align 4
  %6 = alloca i32, align 4
  %7 = alloca %struct.ossl_param_st, align 8
  %8 = alloca %struct.ossl_param_st, align 8
  %9 = alloca %struct.ossl_param_st, align 8
  %10 = alloca %struct.ossl_param_st, align 8
  %11 = alloca %struct.ossl_param_st, align 8
  call void @llvm.lifetime.start.p0(i64 8, ptr nonnull %1) #7
  store ptr null, ptr %1, align 8, !tbaa !20
  call void @llvm.lifetime.start.p0(i64 160, ptr nonnull %2) #7
  call void @llvm.lifetime.start.p0(i64 8, ptr nonnull %3) #7
  store ptr @dsa_key, ptr %3, align 8, !tbaa !18
  call void @llvm.lifetime.start.p0(i64 28, ptr nonnull %4) #7
  call void @llvm.memcpy.p0.p0.i64(ptr noundef nonnull align 16 dereferenceable(28) %4, ptr noundef nonnull align 16 dereferenceable(28) @__const.test_dsa_todata.dsa_seed, i64 28, i1 false)
  call void @llvm.lifetime.start.p0(i64 4, ptr nonnull %5) #7
  store i32 319, ptr %5, align 4, !tbaa !22
  call void @llvm.lifetime.start.p0(i64 4, ptr nonnull %6) #7
  store i32 5, ptr %6, align 4, !tbaa !22
  call void @OSSL_PARAM_construct_octet_string(ptr dead_on_unwind nonnull writable sret(%struct.ossl_param_st) align 8 %2, ptr noundef nonnull @.str.102, ptr noundef nonnull %4, i64 noundef 28) #7
  %12 = getelementptr inbounds nuw i8, ptr %2, i64 40
  call void @llvm.lifetime.start.p0(i64 40, ptr nonnull %7) #7
  call void @OSSL_PARAM_construct_int(ptr dead_on_unwind nonnull writable sret(%struct.ossl_param_st) align 8 %7, ptr noundef nonnull @.str.103, ptr noundef nonnull %6) #7
  call void @llvm.memcpy.p0.p0.i64(ptr noundef nonnull align 8 dereferenceable(40) %12, ptr noundef nonnull align 8 dereferenceable(40) %7, i64 40, i1 false), !tbaa.struct !23
  call void @llvm.lifetime.end.p0(i64 40, ptr nonnull %7) #7
  %13 = getelementptr inbounds nuw i8, ptr %2, i64 80
  call void @llvm.lifetime.start.p0(i64 40, ptr nonnull %8) #7
  call void @OSSL_PARAM_construct_int(ptr dead_on_unwind nonnull writable sret(%struct.ossl_param_st) align 8 %8, ptr noundef nonnull @.str.104, ptr noundef nonnull %5) #7
  call void @llvm.memcpy.p0.p0.i64(ptr noundef nonnull align 16 dereferenceable(40) %13, ptr noundef nonnull align 8 dereferenceable(40) %8, i64 40, i1 false), !tbaa.struct !23
  call void @llvm.lifetime.end.p0(i64 40, ptr nonnull %8) #7
  %14 = getelementptr inbounds nuw i8, ptr %2, i64 120
  call void @llvm.lifetime.start.p0(i64 40, ptr nonnull %9) #7
  call void @OSSL_PARAM_construct_end(ptr dead_on_unwind nonnull writable sret(%struct.ossl_param_st) align 8 %9) #7
  call void @llvm.memcpy.p0.p0.i64(ptr noundef nonnull align 8 dereferenceable(40) %14, ptr noundef nonnull align 8 dereferenceable(40) %9, i64 40, i1 false), !tbaa.struct !23
  call void @llvm.lifetime.end.p0(i64 40, ptr nonnull %9) #7
  %15 = load ptr, ptr @mainctx, align 8, !tbaa !4
  %16 = call ptr @d2i_AutoPrivateKey_ex(ptr noundef null, ptr noundef nonnull %3, i64 noundef 850, ptr noundef %15, ptr noundef null) #7
  %17 = call i32 @test_ptr(ptr noundef nonnull @.str.28, i32 noundef 1117, ptr noundef nonnull @.str.105, ptr noundef %16) #7
  %.not = icmp eq i32 %17, 0
  br i1 %.not, label %81, label %18

18:                                               ; preds = %0
  %19 = call i32 @EVP_PKEY_todata(ptr noundef %16, i32 noundef 135, ptr noundef nonnull %1) #7
  %20 = call i32 @test_int_eq(ptr noundef nonnull @.str.28, i32 noundef 1118, ptr noundef nonnull @.str.106, ptr noundef nonnull @.str.57, i32 noundef %19, i32 noundef 1) #7
  %.not9 = icmp eq i32 %20, 0
  br i1 %.not9, label %81, label %21

21:                                               ; preds = %18
  %22 = load ptr, ptr %1, align 8, !tbaa !20
  %23 = call fastcc i32 @do_check_bn(ptr noundef %22, ptr noundef nonnull @.str.37, ptr noundef nonnull @dsa_p, i64 noundef 257)
  %.not10 = icmp eq i32 %23, 0
  br i1 %.not10, label %81, label %24

24:                                               ; preds = %21
  %25 = load ptr, ptr %1, align 8, !tbaa !20
  %26 = call fastcc i32 @do_check_bn(ptr noundef %25, ptr noundef nonnull @.str.107, ptr noundef nonnull @dsa_q, i64 noundef 29)
  %.not11 = icmp eq i32 %26, 0
  br i1 %.not11, label %81, label %27

27:                                               ; preds = %24
  %28 = load ptr, ptr %1, align 8, !tbaa !20
  %29 = call fastcc i32 @do_check_bn(ptr noundef %28, ptr noundef nonnull @.str.48, ptr noundef nonnull @dsa_g, i64 noundef 257)
  %.not12 = icmp eq i32 %29, 0
  br i1 %.not12, label %81, label %30

30:                                               ; preds = %27
  %31 = load ptr, ptr %1, align 8, !tbaa !20
  %32 = call fastcc i32 @do_check_bn(ptr noundef %31, ptr noundef nonnull @.str.108, ptr noundef nonnull @dsa_pub, i64 noundef 256)
  %.not13 = icmp eq i32 %32, 0
  br i1 %.not13, label %81, label %33

33:                                               ; preds = %30
  %34 = load ptr, ptr %1, align 8, !tbaa !20
  %35 = call fastcc i32 @do_check_bn(ptr noundef %34, ptr noundef nonnull @.str.44, ptr noundef nonnull @dsa_priv, i64 noundef 28)
  %.not14 = icmp eq i32 %35, 0
  br i1 %.not14, label %81, label %36

36:                                               ; preds = %33
  %37 = load ptr, ptr %1, align 8, !tbaa !20
  %38 = call fastcc i32 @do_check_int(ptr noundef %37, ptr noundef nonnull @.str.103, i32 noundef -1)
  %.not15 = icmp eq i32 %38, 0
  br i1 %.not15, label %81, label %39

39:                                               ; preds = %36
  %40 = load ptr, ptr %1, align 8, !tbaa !20
  %41 = call fastcc i32 @do_check_int(ptr noundef %40, ptr noundef nonnull @.str.104, i32 noundef -1)
  %.not16 = icmp eq i32 %41, 0
  br i1 %.not16, label %81, label %42

42:                                               ; preds = %39
  %43 = load ptr, ptr %1, align 8, !tbaa !20
  %44 = call fastcc i32 @do_check_int(ptr noundef %43, ptr noundef nonnull @.str.109, i32 noundef 0)
  %.not17 = icmp eq i32 %44, 0
  br i1 %.not17, label %81, label %45

45:                                               ; preds = %42
  %46 = load ptr, ptr %1, align 8, !tbaa !20
  %47 = call fastcc i32 @do_check_int(ptr noundef %46, ptr noundef nonnull @.str.110, i32 noundef 1)
  %.not18 = icmp eq i32 %47, 0
  br i1 %.not18, label %81, label %48

48:                                               ; preds = %45
  %49 = load ptr, ptr %1, align 8, !tbaa !20
  %50 = call fastcc i32 @do_check_int(ptr noundef %49, ptr noundef nonnull @.str.111, i32 noundef 1)
  %.not19 = icmp eq i32 %50, 0
  br i1 %.not19, label %81, label %51

51:                                               ; preds = %48
  %52 = load ptr, ptr %1, align 8, !tbaa !20
  %53 = call fastcc i32 @do_check_int(ptr noundef %52, ptr noundef nonnull @.str.112, i32 noundef 0)
  %.not20 = icmp eq i32 %53, 0
  br i1 %.not20, label %81, label %54

54:                                               ; preds = %51
  %55 = load ptr, ptr %1, align 8, !tbaa !20
  %56 = call ptr @OSSL_PARAM_locate(ptr noundef %55, ptr noundef nonnull @.str.102) #7
  %57 = call i32 @test_ptr_null(ptr noundef nonnull @.str.28, i32 noundef 1132, ptr noundef nonnull @.str.113, ptr noundef %56) #7
  %.not21 = icmp eq i32 %57, 0
  br i1 %.not21, label %81, label %58

58:                                               ; preds = %54
  %59 = load ptr, ptr %1, align 8, !tbaa !20
  %60 = call fastcc i32 @do_fromdata_key_is_equal(ptr noundef %59, ptr noundef %16, ptr noundef nonnull @.str.114)
  %.not22 = icmp eq i32 %60, 0
  br i1 %.not22, label %81, label %61

61:                                               ; preds = %58
  %62 = load ptr, ptr %1, align 8, !tbaa !20
  %63 = call ptr @OSSL_PARAM_merge(ptr noundef %62, ptr noundef nonnull %2) #7
  %64 = call i32 @test_ptr(ptr noundef nonnull @.str.28, i32 noundef 1138, ptr noundef nonnull @.str.115, ptr noundef %63) #7
  %.not23 = icmp eq i32 %64, 0
  br i1 %.not23, label %81, label %65

65:                                               ; preds = %61
  %66 = call fastcc i32 @do_check_params(ptr noundef %63, i32 noundef 1)
  %.not24 = icmp eq i32 %66, 0
  br i1 %.not24, label %81, label %67

67:                                               ; preds = %65
  call void @llvm.lifetime.start.p0(i64 40, ptr nonnull %10) #7
  call void @OSSL_PARAM_construct_int(ptr dead_on_unwind nonnull writable sret(%struct.ossl_param_st) align 8 %10, ptr noundef nonnull @.str.103, ptr noundef nonnull %6) #7
  call void @llvm.memcpy.p0.p0.i64(ptr noundef nonnull align 8 dereferenceable(40) %12, ptr noundef nonnull align 8 dereferenceable(40) %10, i64 40, i1 false), !tbaa.struct !23
  call void @llvm.lifetime.end.p0(i64 40, ptr nonnull %10) #7
  call void @llvm.lifetime.start.p0(i64 40, ptr nonnull %11) #7
  call void @OSSL_PARAM_construct_int(ptr dead_on_unwind nonnull writable sret(%struct.ossl_param_st) align 8 %11, ptr noundef nonnull @.str.104, ptr noundef nonnull %5) #7
  call void @llvm.memcpy.p0.p0.i64(ptr noundef nonnull align 16 dereferenceable(40) %13, ptr noundef nonnull align 8 dereferenceable(40) %11, i64 40, i1 false), !tbaa.struct !23
  call void @llvm.lifetime.end.p0(i64 40, ptr nonnull %11) #7
  %68 = load i32, ptr %6, align 4, !tbaa !22
  %69 = add nsw i32 %68, 1
  store i32 %69, ptr %6, align 4, !tbaa !22
  %70 = call fastcc i32 @do_check_params(ptr noundef %63, i32 noundef 0)
  %.not25 = icmp eq i32 %70, 0
  br i1 %.not25, label %81, label %71

71:                                               ; preds = %67
  %72 = load i32, ptr %6, align 4, !tbaa !22
  %73 = add nsw i32 %72, -1
  store i32 %73, ptr %6, align 4, !tbaa !22
  %74 = load i32, ptr %5, align 4, !tbaa !22
  %75 = add nsw i32 %74, 1
  store i32 %75, ptr %5, align 4, !tbaa !22
  %76 = call fastcc i32 @do_check_params(ptr noundef %63, i32 noundef 0)
  %.not26 = icmp eq i32 %76, 0
  br i1 %.not26, label %81, label %77

77:                                               ; preds = %71
  %78 = load i32, ptr %5, align 4, !tbaa !22
  %79 = add nsw i32 %78, -1
  store i32 %79, ptr %5, align 4, !tbaa !22
  store i8 -80, ptr %4, align 16, !tbaa !25
  %80 = call fastcc i32 @do_check_params(ptr noundef %63, i32 noundef 0)
  br label %81

81:                                               ; preds = %77, %71, %67, %61, %65, %58, %0, %18, %21, %24, %27, %30, %33, %36, %39, %42, %45, %48, %51, %54
  %.08 = phi ptr [ %63, %71 ], [ %63, %67 ], [ %63, %65 ], [ %63, %61 ], [ null, %58 ], [ null, %54 ], [ null, %51 ], [ null, %48 ], [ null, %45 ], [ null, %42 ], [ null, %39 ], [ null, %36 ], [ null, %33 ], [ null, %30 ], [ null, %27 ], [ null, %24 ], [ null, %21 ], [ null, %18 ], [ null, %0 ], [ %63, %77 ]
  %.0 = phi i32 [ 0, %71 ], [ 0, %67 ], [ 0, %65 ], [ 0, %61 ], [ 0, %58 ], [ 0, %54 ], [ 0, %51 ], [ 0, %48 ], [ 0, %45 ], [ 0, %42 ], [ 0, %39 ], [ 0, %36 ], [ 0, %33 ], [ 0, %30 ], [ 0, %27 ], [ 0, %24 ], [ 0, %21 ], [ 0, %18 ], [ 0, %0 ], [ %80, %77 ]
  call void @EVP_PKEY_free(ptr noundef %16) #7
  call void @OSSL_PARAM_free(ptr noundef %.08) #7
  %82 = load ptr, ptr %1, align 8, !tbaa !20
  call void @OSSL_PARAM_free(ptr noundef %82) #7
  call void @llvm.lifetime.end.p0(i64 4, ptr nonnull %6) #7
  call void @llvm.lifetime.end.p0(i64 4, ptr nonnull %5) #7
  call void @llvm.lifetime.end.p0(i64 28, ptr nonnull %4) #7
  call void @llvm.lifetime.end.p0(i64 8, ptr nonnull %3) #7
  call void @llvm.lifetime.end.p0(i64 160, ptr nonnull %2) #7
  call void @llvm.lifetime.end.p0(i64 8, ptr nonnull %1) #7
  ret i32 %.0
}